; Function Attrs: nounwind uwtable
define noalias ptr @l_Std_Sat_AIG_RefVec_zip___rarg___boxed(ptr noundef %0, ptr noundef %1, ptr noundef %2, ptr noundef %3, ptr noundef %4, ptr noundef %5, ptr readnone captures(none) %6, ptr readnone captures(none) %7) #0 {
  %9 = ptrtoint ptr %2 to i64
  %10 = and i64 %9, 1
  %.not.i.i = icmp eq i64 %10, 0
  br i1 %.not.i.i, label %11, label %l_Std_Sat_AIG_RefVec_zip___rarg.exit

11:                                               ; preds = %8
  tail call void @lean_internal_panic_out_of_memory() #4
  unreachable

l_Std_Sat_AIG_RefVec_zip___rarg.exit:             ; preds = %8
  %12 = lshr i64 %9, 1
  %13 = shl i64 %12, 3
  %14 = add i64 %13, 24
  %15 = tail call ptr @lean_alloc_object(i64 noundef %14) #3
  store i32 1, ptr %15, align 4, !tbaa !5
  %16 = getelementptr inbounds nuw i8, ptr %15, i64 4
  %17 = load i32, ptr %16, align 4
  %18 = and i32 %17, 65535
  %19 = or disjoint i32 %18, -167772160
  store i32 %19, ptr %16, align 4
  %20 = getelementptr inbounds nuw i8, ptr %15, i64 8
  store i64 0, ptr %20, align 8, !tbaa !13
  %21 = getelementptr inbounds nuw i8, ptr %15, i64 16
  store i64 %12, ptr %21, align 8, !tbaa !13
  %22 = getelementptr inbounds nuw i8, ptr %4, i64 8
  %23 = load ptr, ptr %22, align 8, !tbaa !11
  %24 = getelementptr inbounds nuw i8, ptr %4, i64 16
  %25 = load ptr, ptr %24, align 8, !tbaa !11
  %26 = tail call noalias ptr @l_Std_Sat_AIG_RefVec_zip_go___rarg(ptr readnone poison, ptr readnone poison, ptr noundef %2, ptr noundef %3, ptr noundef nonnull inttoptr (i64 1 to ptr), ptr noundef nonnull %15, ptr nonnull poison, ptr noundef %23, ptr noundef %25, ptr noundef %5, ptr nonnull poison, ptr nonnull poison)
  %27 = ptrtoint ptr %4 to i64
  %28 = and i64 %27, 1
  %.not = icmp eq i64 %28, 0
  br i1 %.not, label %29, label %lean_dec.exit14

29:                                               ; preds = %l_Std_Sat_AIG_RefVec_zip___rarg.exit
  %30 = load i32, ptr %4, align 4, !tbaa !5
  %31 = icmp sgt i32 %30, 1
  br i1 %31, label %32, label %34, !prof !10

32:                                               ; preds = %29
  %33 = add nsw i32 %30, -1
  store i32 %33, ptr %4, align 4, !tbaa !5
  br label %lean_dec.exit14

34:                                               ; preds = %29
  %.not.i = icmp eq i32 %30, 0
  br i1 %.not.i, label %lean_dec.exit14, label %35

35:                                               ; preds = %34
  tail call void @lean_dec_ref_cold(ptr noundef nonnull %4) #3
  br label %lean_dec.exit14

lean_dec.exit14:                                  ; preds = %l_Std_Sat_AIG_RefVec_zip___rarg.exit, %32, %34, %35
  %36 = ptrtoint ptr %1 to i64
  %37 = and i64 %36, 1
  %.not22 = icmp eq i64 %37, 0
  br i1 %.not22, label %38, label %lean_dec.exit13

38:                                               ; preds = %lean_dec.exit14
  %39 = load i32, ptr %1, align 4, !tbaa !5
  %40 = icmp sgt i32 %39, 1
  br i1 %40, label %41, label %43, !prof !10

41:                                               ; preds = %38
  %42 = add nsw i32 %39, -1
  store i32 %42, ptr %1, align 4, !tbaa !5
  br label %lean_dec.exit13

43:                                               ; preds = %38
  %.not.i18 = icmp eq i32 %39, 0
  br i1 %.not.i18, label %lean_dec.exit13, label %44

44:                                               ; preds = %43
  tail call void @lean_dec_ref_cold(ptr noundef nonnull %1) #3
  br label %lean_dec.exit13

lean_dec.exit13:                                  ; preds = %44, %43, %41, %lean_dec.exit14
  %45 = ptrtoint ptr %0 to i64
  %46 = and i64 %45, 1
  %.not23 = icmp eq i64 %46, 0
  br i1 %.not23, label %47, label %lean_dec.exit

47:                                               ; preds = %lean_dec.exit13
  %48 = load i32, ptr %0, align 4, !tbaa !5
  %49 = icmp sgt i32 %48, 1
  br i1 %49, label %50, label %52, !prof !10

50:                                               ; preds = %47
  %51 = add nsw i32 %48, -1
  store i32 %51, ptr %0, align 4, !tbaa !5
  br label %lean_dec.exit

52:                                               ; preds = %47
  %.not.i20 = icmp eq i32 %48, 0
  br i1 %.not.i20, label %lean_dec.exit, label %53

53:                                               ; preds = %52
  tail call void @lean_dec_ref_cold(ptr noundef nonnull %0) #3
  br label %lean_dec.exit

lean_dec.exit:                                    ; preds = %53, %52, %50, %lean_dec.exit13
  ret ptr %26
}